; Function Attrs: mustprogress nounwind uwtable
define hidden void @_ZN9XRelocate8relocateEP14XRelocationSet(ptr nocapture noundef nonnull readonly align 8 dereferenceable(8) %0, ptr nocapture noundef readonly %1) local_unnamed_addr #1 align 2 {
  %3 = alloca %class.XRelocateTask, align 8
  call void @_ZN5XTaskC2EPKc(ptr noundef nonnull align 8 dereferenceable(40) %3, ptr noundef nonnull @.str) #8
  store ptr getelementptr inbounds inrange(-16, 8) (i8, ptr @_ZTV13XRelocateTask, i64 16), ptr %3, align 8
  %4 = getelementptr inbounds i8, ptr %3, i64 40
  %5 = getelementptr inbounds i8, ptr %1, i64 32
  %6 = load ptr, ptr %5, align 8
  %7 = getelementptr inbounds i8, ptr %1, i64 40
  %8 = load i64, ptr %7, align 8
  store ptr %6, ptr %4, align 8
  %9 = getelementptr inbounds i8, ptr %3, i64 48
  %10 = getelementptr inbounds ptr, ptr %6, i64 %8
  store ptr %10, ptr %9, align 8
  %11 = getelementptr inbounds i8, ptr %3, i64 56
  store volatile i64 0, ptr %11, align 8
  %12 = getelementptr inbounds i8, ptr %3, i64 64
  call void @llvm.memset.p0.i64(ptr noundef nonnull align 8 dereferenceable(88) %12, i8 0, i64 88, i1 false)
  call void @_ZN15PlatformMonitorC1Ev(ptr noundef nonnull align 8 dereferenceable(88) %12) #8
  %13 = getelementptr inbounds i8, ptr %3, i64 152
  store ptr null, ptr %13, align 8
  %14 = getelementptr inbounds i8, ptr %3, i64 160
  store i8 0, ptr %14, align 8
  %15 = getelementptr inbounds i8, ptr %3, i64 168
  store volatile i64 0, ptr %15, align 8
  %16 = load ptr, ptr %0, align 8
  call void @_ZN8XWorkers3runEP5XTask(ptr noundef nonnull align 8 dereferenceable(120) %16, ptr noundef nonnull %3) #8
  store ptr getelementptr inbounds inrange(-16, 8) (i8, ptr @_ZTV13XRelocateTask, i64 16), ptr %3, align 8
  %17 = load volatile i64, ptr %11, align 8
  %18 = load volatile i64, ptr %15, align 8
  call void @_ZN15XStatRelocation19set_at_relocate_endEmm(i64 noundef %17, i64 noundef %18) #8
  %19 = load ptr, ptr %13, align 8
  %.not.i.i.i = icmp eq ptr %19, null
  br i1 %.not.i.i.i, label %_ZN13XRelocateTaskD2Ev.exit, label %_ZL23should_free_target_pageP5XPage.exit.i.i

_ZL23should_free_target_pageP5XPage.exit.i.i:     ; preds = %2
  %20 = getelementptr inbounds i8, ptr %19, i64 24
  %21 = load volatile i64, ptr %20, align 8
  %22 = getelementptr inbounds i8, ptr %19, i64 8
  %23 = load i64, ptr %22, align 8
  %24 = icmp eq i64 %21, %23
  br i1 %24, label %25, label %_ZN13XRelocateTaskD2Ev.exit

25:                                               ; preds = %_ZL23should_free_target_pageP5XPage.exit.i.i
  %26 = load ptr, ptr @_ZN5XHeap5_heapE, align 8
  call void @_ZN5XHeap9free_pageEP5XPageb(ptr noundef nonnull align 64 dereferenceable(4088) %26, ptr noundef nonnull %19, i1 noundef zeroext true) #8
  br label %_ZN13XRelocateTaskD2Ev.exit

_ZN13XRelocateTaskD2Ev.exit:                      ; preds = %2, %_ZL23should_free_target_pageP5XPage.exit.i.i, %25
  call void @_ZN15PlatformMonitorD1Ev(ptr noundef nonnull align 8 dereferenceable(88) %12) #8
  ret void
}